; Function Attrs: mustprogress nofree norecurse nosync nounwind memory(readwrite, inaccessiblemem: none) uwtable
define void @_ZNK6casadi17SundialsInterface8impulseBEPNS_16IntegratorMemoryEPKdS4_S4_(ptr nocapture noundef nonnull readonly align 8 dereferenceable(2120) %0, ptr nocapture noundef readonly %1, ptr noundef readonly %2, ptr noundef readonly %3, ptr noundef readonly %4) unnamed_addr #11 align 2 {
  %6 = getelementptr inbounds i8, ptr %0, i64 1720
  %7 = load i64, ptr %6, align 8
  %8 = getelementptr inbounds i8, ptr %1, i64 208
  %9 = load ptr, ptr %8, align 8
  %10 = icmp ne ptr %4, null
  %11 = icmp ne ptr %9, null
  %or.cond.i = and i1 %10, %11
  %12 = icmp sgt i64 %7, 0
  %or.cond15.i = and i1 %12, %or.cond.i
  br i1 %or.cond15.i, label %.lr.ph.i, label %_ZN6casadi11casadi_axpyIdEEvxT_PKS1_PS1_.exit

.lr.ph.i:                                         ; preds = %5, %.lr.ph.i
  %.014.i = phi i64 [ %18, %.lr.ph.i ], [ 0, %5 ]
  %.0813.i = phi ptr [ %15, %.lr.ph.i ], [ %9, %5 ]
  %.0912.i = phi ptr [ %13, %.lr.ph.i ], [ %4, %5 ]
  %13 = getelementptr inbounds i8, ptr %.0912.i, i64 8
  %14 = load double, ptr %.0912.i, align 8
  %15 = getelementptr inbounds i8, ptr %.0813.i, i64 8
  %16 = load double, ptr %.0813.i, align 8
  %17 = fadd double %14, %16
  store double %17, ptr %.0813.i, align 8
  %18 = add nuw nsw i64 %.014.i, 1
  %exitcond.not.i = icmp eq i64 %18, %7
  br i1 %exitcond.not.i, label %_ZN6casadi11casadi_axpyIdEEvxT_PKS1_PS1_.exit, label %.lr.ph.i, !llvm.loop !31

_ZN6casadi11casadi_axpyIdEEvxT_PKS1_PS1_.exit:    ; preds = %.lr.ph.i, %5
  %19 = getelementptr inbounds i8, ptr %0, i64 1648
  %20 = load i64, ptr %19, align 8
  %21 = getelementptr inbounds i8, ptr %1, i64 168
  %22 = load ptr, ptr %21, align 8
  %23 = load ptr, ptr %22, align 8
  %24 = getelementptr inbounds i8, ptr %23, i64 16
  %25 = load ptr, ptr %24, align 8
  %26 = icmp ne ptr %2, null
  %27 = icmp ne ptr %25, null
  %or.cond.i8 = and i1 %26, %27
  %28 = icmp sgt i64 %20, 0
  %or.cond15.i9 = and i1 %28, %or.cond.i8
  br i1 %or.cond15.i9, label %.lr.ph.i10, label %_ZN6casadi11casadi_axpyIdEEvxT_PKS1_PS1_.exit15

.lr.ph.i10:                                       ; preds = %_ZN6casadi11casadi_axpyIdEEvxT_PKS1_PS1_.exit, %.lr.ph.i10
  %.014.i11 = phi i64 [ %34, %.lr.ph.i10 ], [ 0, %_ZN6casadi11casadi_axpyIdEEvxT_PKS1_PS1_.exit ]
  %.0813.i12 = phi ptr [ %31, %.lr.ph.i10 ], [ %25, %_ZN6casadi11casadi_axpyIdEEvxT_PKS1_PS1_.exit ]
  %.0912.i13 = phi ptr [ %29, %.lr.ph.i10 ], [ %2, %_ZN6casadi11casadi_axpyIdEEvxT_PKS1_PS1_.exit ]
  %29 = getelementptr inbounds i8, ptr %.0912.i13, i64 8
  %30 = load double, ptr %.0912.i13, align 8
  %31 = getelementptr inbounds i8, ptr %.0813.i12, i64 8
  %32 = load double, ptr %.0813.i12, align 8
  %33 = fadd double %30, %32
  store double %33, ptr %.0813.i12, align 8
  %34 = add nuw nsw i64 %.014.i11, 1
  %exitcond.not.i14 = icmp eq i64 %34, %20
  br i1 %exitcond.not.i14, label %_ZN6casadi11casadi_axpyIdEEvxT_PKS1_PS1_.exit15.loopexit, label %.lr.ph.i10, !llvm.loop !31

_ZN6casadi11casadi_axpyIdEEvxT_PKS1_PS1_.exit15.loopexit: ; preds = %.lr.ph.i10
  %.pre = load ptr, ptr %21, align 8
  %.pre24 = load ptr, ptr %.pre, align 8
  %.phi.trans.insert = getelementptr inbounds i8, ptr %.pre24, i64 16
  %.pre25 = load ptr, ptr %.phi.trans.insert, align 8
  %.pre26 = load i64, ptr %19, align 8
  br label %_ZN6casadi11casadi_axpyIdEEvxT_PKS1_PS1_.exit15

_ZN6casadi11casadi_axpyIdEEvxT_PKS1_PS1_.exit15:  ; preds = %_ZN6casadi11casadi_axpyIdEEvxT_PKS1_PS1_.exit15.loopexit, %_ZN6casadi11casadi_axpyIdEEvxT_PKS1_PS1_.exit
  %35 = phi i64 [ %.pre26, %_ZN6casadi11casadi_axpyIdEEvxT_PKS1_PS1_.exit15.loopexit ], [ %20, %_ZN6casadi11casadi_axpyIdEEvxT_PKS1_PS1_.exit ]
  %36 = phi ptr [ %.pre25, %_ZN6casadi11casadi_axpyIdEEvxT_PKS1_PS1_.exit15.loopexit ], [ %25, %_ZN6casadi11casadi_axpyIdEEvxT_PKS1_PS1_.exit ]
  %37 = getelementptr inbounds i8, ptr %0, i64 1656
  %38 = load i64, ptr %37, align 8
  %39 = icmp ne ptr %3, null
  %40 = icmp ne ptr %36, null
  %or.cond.i16 = and i1 %39, %40
  %41 = icmp sgt i64 %38, 0
  %or.cond15.i17 = and i1 %41, %or.cond.i16
  br i1 %or.cond15.i17, label %.lr.ph.i18.preheader, label %_ZN6casadi11casadi_axpyIdEEvxT_PKS1_PS1_.exit23

.lr.ph.i18.preheader:                             ; preds = %_ZN6casadi11casadi_axpyIdEEvxT_PKS1_PS1_.exit15
  %42 = getelementptr inbounds double, ptr %36, i64 %35
  br label %.lr.ph.i18

.lr.ph.i18:                                       ; preds = %.lr.ph.i18.preheader, %.lr.ph.i18
  %.014.i19 = phi i64 [ %48, %.lr.ph.i18 ], [ 0, %.lr.ph.i18.preheader ]
  %.0813.i20 = phi ptr [ %45, %.lr.ph.i18 ], [ %42, %.lr.ph.i18.preheader ]
  %.0912.i21 = phi ptr [ %43, %.lr.ph.i18 ], [ %3, %.lr.ph.i18.preheader ]
  %43 = getelementptr inbounds i8, ptr %.0912.i21, i64 8
  %44 = load double, ptr %.0912.i21, align 8
  %45 = getelementptr inbounds i8, ptr %.0813.i20, i64 8
  %46 = load double, ptr %.0813.i20, align 8
  %47 = fadd double %44, %46
  store double %47, ptr %.0813.i20, align 8
  %48 = add nuw nsw i64 %.014.i19, 1
  %exitcond.not.i22 = icmp eq i64 %48, %38
  br i1 %exitcond.not.i22, label %_ZN6casadi11casadi_axpyIdEEvxT_PKS1_PS1_.exit23, label %.lr.ph.i18, !llvm.loop !31

_ZN6casadi11casadi_axpyIdEEvxT_PKS1_PS1_.exit23:  ; preds = %.lr.ph.i18, %_ZN6casadi11casadi_axpyIdEEvxT_PKS1_PS1_.exit15
  ret void
}